; ModuleID = '23/914.c'
source_filename = "23/914.c"
target datalayout = "e-m:e-p270:32:32-p271:32:32-p272:64:64-i64:64-f80:128-n8:16:32:64-S128"
target triple = "x86_64-pc-linux-gnu"

@.str = private unnamed_addr constant [3 x i8] c"%c\00", align 1

; Function Attrs: noinline nounwind uwtable
define dso_local void @main() #0 {
  %1 = alloca [1000 x i8], align 16
  %2 = alloca [1000 x i8], align 16
  %3 = alloca i32, align 4
  %4 = alloca i32, align 4
  %5 = alloca i32, align 4
  %6 = alloca i32, align 4
  store i32 0, i32* %5, align 4
  %7 = getelementptr inbounds [1000 x i8], [1000 x i8]* %1, i64 0, i64 0
  %8 = call i32 (i8*, ...) bitcast (i32 (...)* @gets to i32 (i8*, ...)*)(i8* %7)
  %9 = getelementptr inbounds [1000 x i8], [1000 x i8]* %1, i64 0, i64 0
  %10 = call i64 @strlen(i8* %9) #3
  %11 = sub i64 %10, 1
  %12 = trunc i64 %11 to i32
  store i32 %12, i32* %4, align 4
  %13 = getelementptr inbounds [1000 x i8], [1000 x i8]* %1, i64 0, i64 -1
  store i8 32, i8* %13, align 1
  store i32 0, i32* %3, align 4
  br label %14

14:                                               ; preds = %34, %0
  %15 = load i32, i32* %3, align 4
  %16 = load i32, i32* %4, align 4
  %17 = icmp sle i32 %15, %16
  br i1 %17, label %18, label %37

18:                                               ; preds = %14
  %19 = load i32, i32* %3, align 4
  %20 = sext i32 %19 to i64
  %21 = getelementptr inbounds [1000 x i8], [1000 x i8]* %1, i64 0, i64 %20
  %22 = load i8, i8* %21, align 1
  %23 = sext i8 %22 to i32
  %24 = icmp eq i32 %23, 32
  br i1 %24, label %25, label %33

25:                                               ; preds = %18
  %26 = load i32, i32* %3, align 4
  %27 = trunc i32 %26 to i8
  %28 = load i32, i32* %5, align 4
  %29 = sext i32 %28 to i64
  %30 = getelementptr inbounds [1000 x i8], [1000 x i8]* %2, i64 0, i64 %29
  store i8 %27, i8* %30, align 1
  %31 = load i32, i32* %5, align 4
  %32 = add nsw i32 %31, 1
  store i32 %32, i32* %5, align 4
  br label %33

33:                                               ; preds = %25, %18
  br label %34

34:                                               ; preds = %33
  %35 = load i32, i32* %3, align 4
  %36 = add nsw i32 %35, 1
  store i32 %36, i32* %3, align 4
  br label %14

37:                                               ; preds = %14
  %38 = load i32, i32* %5, align 4
  %39 = sub nsw i32 %38, 1
  %40 = icmp sge i32 %39, 0
  br i1 %40, label %41, label %116

41:                                               ; preds = %37
  %42 = load i32, i32* %5, align 4
  %43 = sub nsw i32 %42, 1
  %44 = sext i32 %43 to i64
  %45 = getelementptr inbounds [1000 x i8], [1000 x i8]* %2, i64 0, i64 %44
  %46 = load i8, i8* %45, align 1
  %47 = sext i8 %46 to i32
  %48 = add nsw i32 %47, 1
  store i32 %48, i32* %3, align 4
  br label %49

49:                                               ; preds = %60, %41
  %50 = load i32, i32* %3, align 4
  %51 = load i32, i32* %4, align 4
  %52 = icmp sle i32 %50, %51
  br i1 %52, label %53, label %63

53:                                               ; preds = %49
  %54 = load i32, i32* %3, align 4
  %55 = sext i32 %54 to i64
  %56 = getelementptr inbounds [1000 x i8], [1000 x i8]* %1, i64 0, i64 %55
  %57 = load i8, i8* %56, align 1
  %58 = sext i8 %57 to i32
  %59 = call i32 (i8*, ...) @printf(i8* getelementptr inbounds ([3 x i8], [3 x i8]* @.str, i64 0, i64 0), i32 %58)
  br label %60

60:                                               ; preds = %53
  %61 = load i32, i32* %3, align 4
  %62 = add nsw i32 %61, 1
  store i32 %62, i32* %3, align 4
  br label %49

63:                                               ; preds = %49
  %64 = load i32, i32* %5, align 4
  %65 = sub nsw i32 %64, 1
  store i32 %65, i32* %6, align 4
  br label %66

66:                                               ; preds = %95, %63
  %67 = load i32, i32* %6, align 4
  %68 = icmp sge i32 %67, 1
  br i1 %68, label %69, label %98

69:                                               ; preds = %66
  %70 = load i32, i32* %6, align 4
  %71 = sub nsw i32 %70, 1
  %72 = sext i32 %71 to i64
  %73 = getelementptr inbounds [1000 x i8], [1000 x i8]* %2, i64 0, i64 %72
  %74 = load i8, i8* %73, align 1
  %75 = sext i8 %74 to i32
  store i32 %75, i32* %3, align 4
  br label %76

76:                                               ; preds = %91, %69
  %77 = load i32, i32* %3, align 4
  %78 = load i32, i32* %6, align 4
  %79 = sext i32 %78 to i64
  %80 = getelementptr inbounds [1000 x i8], [1000 x i8]* %2, i64 0, i64 %79
  %81 = load i8, i8* %80, align 1
  %82 = sext i8 %81 to i32
  %83 = icmp slt i32 %77, %82
  br i1 %83, label %84, label %94

84:                                               ; preds = %76
  %85 = load i32, i32* %3, align 4
  %86 = sext i32 %85 to i64
  %87 = getelementptr inbounds [1000 x i8], [1000 x i8]* %1, i64 0, i64 %86
  %88 = load i8, i8* %87, align 1
  %89 = sext i8 %88 to i32
  %90 = call i32 (i8*, ...) @printf(i8* getelementptr inbounds ([3 x i8], [3 x i8]* @.str, i64 0, i64 0), i32 %89)
  br label %91

91:                                               ; preds = %84
  %92 = load i32, i32* %3, align 4
  %93 = add nsw i32 %92, 1
  store i32 %93, i32* %3, align 4
  br label %76

94:                                               ; preds = %76
  br label %95

95:                                               ; preds = %94
  %96 = load i32, i32* %6, align 4
  %97 = add nsw i32 %96, -1
  store i32 %97, i32* %6, align 4
  br label %66

98:                                               ; preds = %66
  store i32 -1, i32* %3, align 4
  br label %99

99:                                               ; preds = %112, %98
  %100 = load i32, i32* %3, align 4
  %101 = getelementptr inbounds [1000 x i8], [1000 x i8]* %2, i64 0, i64 0
  %102 = load i8, i8* %101, align 16
  %103 = sext i8 %102 to i32
  %104 = icmp slt i32 %100, %103
  br i1 %104, label %105, label %115

105:                                              ; preds = %99
  %106 = load i32, i32* %3, align 4
  %107 = sext i32 %106 to i64
  %108 = getelementptr inbounds [1000 x i8], [1000 x i8]* %1, i64 0, i64 %107
  %109 = load i8, i8* %108, align 1
  %110 = sext i8 %109 to i32
  %111 = call i32 (i8*, ...) @printf(i8* getelementptr inbounds ([3 x i8], [3 x i8]* @.str, i64 0, i64 0), i32 %110)
  br label %112

112:                                              ; preds = %105
  %113 = load i32, i32* %3, align 4
  %114 = add nsw i32 %113, 1
  store i32 %114, i32* %3, align 4
  br label %99

115:                                              ; preds = %99
  br label %119

116:                                              ; preds = %37
  %117 = getelementptr inbounds [1000 x i8], [1000 x i8]* %1, i64 0, i64 0
  %118 = call i32 @puts(i8* %117)
  br label %119

119:                                              ; preds = %116, %115
  ret void
}

declare dso_local i32 @gets(...) #1

; Function Attrs: nounwind readonly
declare dso_local i64 @strlen(i8*) #2

declare dso_local i32 @printf(i8*, ...) #1

declare dso_local i32 @puts(i8*) #1


!llvm.module.flags = !{!0}
!llvm.ident = !{!1}

!0 = !{i32 1, !"wchar_size", i32 4}
!1 = !{!"clang version 10.0.0-4ubuntu1 "}
